target datalayout = "e-m:e-p270:32:32-p271:32:32-p272:64:64-i64:64-i128:128-f80:128-n8:16:32:64-S128"
target triple = "x86_64-pc-linux-gnu"

%struct.FxuMatrix = type { %struct.FxuListCube, %struct.FxuListVar, ptr, ptr, i32, i32, i32, ptr, %struct.FxuListSingle, ptr, i32, i32, ptr, ptr, ptr, ptr, ptr, ptr, ptr, i32, i32, i32, i32, ptr }
%struct.FxuListCube = type { ptr, ptr, i32 }
%struct.FxuListVar = type { ptr, ptr, i32 }
%struct.FxuListSingle = type { ptr, ptr, i32 }
%struct.FxuDouble = type { i32, i32, i32, i32, %struct.FxuListPair, ptr, ptr, ptr }
%struct.FxuListPair = type { ptr, ptr, i32 }
%struct.FxuListDouble = type { ptr, ptr, i32 }

; Function Attrs: nounwind uwtable
define void @Fxu_ListTableAddDivisor(ptr noundef %0, ptr noundef %1) #0 {
  %3 = alloca ptr, align 8
  %4 = alloca ptr, align 8
  %5 = alloca ptr, align 8
  store ptr %0, ptr %3, align 8, !tbaa !3
  store ptr %1, ptr %4, align 8, !tbaa !45
  call void @llvm.lifetime.start.p0(i64 8, ptr %5) #3
  %6 = load ptr, ptr %3, align 8, !tbaa !3
  %7 = getelementptr inbounds nuw %struct.FxuMatrix, ptr %6, i32 0, i32 3
  %8 = load ptr, ptr %7, align 8, !tbaa !47
  %9 = load ptr, ptr %4, align 8, !tbaa !45
  %10 = getelementptr inbounds nuw %struct.FxuDouble, ptr %9, i32 0, i32 3
  %11 = load i32, ptr %10, align 4, !tbaa !57
  %12 = zext i32 %11 to i64
  %13 = getelementptr inbounds nuw %struct.FxuListDouble, ptr %8, i64 %12
  store ptr %13, ptr %5, align 8, !tbaa !61
  %14 = load ptr, ptr %5, align 8, !tbaa !61
  %15 = getelementptr inbounds nuw %struct.FxuListDouble, ptr %14, i32 0, i32 0
  %16 = load ptr, ptr %15, align 8, !tbaa !62
  %17 = icmp eq ptr %16, null
  br i1 %17, label %18, label %29

18:                                               ; preds = %2
  %19 = load ptr, ptr %4, align 8, !tbaa !45
  %20 = load ptr, ptr %5, align 8, !tbaa !61
  %21 = getelementptr inbounds nuw %struct.FxuListDouble, ptr %20, i32 0, i32 0
  store ptr %19, ptr %21, align 8, !tbaa !62
  %22 = load ptr, ptr %4, align 8, !tbaa !45
  %23 = load ptr, ptr %5, align 8, !tbaa !61
  %24 = getelementptr inbounds nuw %struct.FxuListDouble, ptr %23, i32 0, i32 1
  store ptr %22, ptr %24, align 8, !tbaa !64
  %25 = load ptr, ptr %4, align 8, !tbaa !45
  %26 = getelementptr inbounds nuw %struct.FxuDouble, ptr %25, i32 0, i32 5
  store ptr null, ptr %26, align 8, !tbaa !65
  %27 = load ptr, ptr %4, align 8, !tbaa !45
  %28 = getelementptr inbounds nuw %struct.FxuDouble, ptr %27, i32 0, i32 6
  store ptr null, ptr %28, align 8, !tbaa !66
  br label %45

29:                                               ; preds = %2
  %30 = load ptr, ptr %4, align 8, !tbaa !45
  %31 = getelementptr inbounds nuw %struct.FxuDouble, ptr %30, i32 0, i32 6
  store ptr null, ptr %31, align 8, !tbaa !66
  %32 = load ptr, ptr %4, align 8, !tbaa !45
  %33 = load ptr, ptr %5, align 8, !tbaa !61
  %34 = getelementptr inbounds nuw %struct.FxuListDouble, ptr %33, i32 0, i32 1
  %35 = load ptr, ptr %34, align 8, !tbaa !64
  %36 = getelementptr inbounds nuw %struct.FxuDouble, ptr %35, i32 0, i32 6
  store ptr %32, ptr %36, align 8, !tbaa !66
  %37 = load ptr, ptr %5, align 8, !tbaa !61
  %38 = getelementptr inbounds nuw %struct.FxuListDouble, ptr %37, i32 0, i32 1
  %39 = load ptr, ptr %38, align 8, !tbaa !64
  %40 = load ptr, ptr %4, align 8, !tbaa !45
  %41 = getelementptr inbounds nuw %struct.FxuDouble, ptr %40, i32 0, i32 5
  store ptr %39, ptr %41, align 8, !tbaa !65
  %42 = load ptr, ptr %4, align 8, !tbaa !45
  %43 = load ptr, ptr %5, align 8, !tbaa !61
  %44 = getelementptr inbounds nuw %struct.FxuListDouble, ptr %43, i32 0, i32 1
  store ptr %42, ptr %44, align 8, !tbaa !64
  br label %45

45:                                               ; preds = %29, %18
  %46 = load ptr, ptr %5, align 8, !tbaa !61
  %47 = getelementptr inbounds nuw %struct.FxuListDouble, ptr %46, i32 0, i32 2
  %48 = load i32, ptr %47, align 8, !tbaa !67
  %49 = add nsw i32 %48, 1
  store i32 %49, ptr %47, align 8, !tbaa !67
  %50 = load ptr, ptr %3, align 8, !tbaa !3
  %51 = getelementptr inbounds nuw %struct.FxuMatrix, ptr %50, i32 0, i32 5
  %52 = load i32, ptr %51, align 4, !tbaa !68
  %53 = add nsw i32 %52, 1
  store i32 %53, ptr %51, align 4, !tbaa !68
  call void @llvm.lifetime.end.p0(i64 8, ptr %5) #3
  ret void
}