; Function Attrs: mustprogress nofree norecurse nosync nounwind willreturn memory(readwrite, inaccessiblemem: none) uwtable
define void @Fxu_ListTableAddDivisor(ptr noundef captures(none) %0, ptr noundef %1) local_unnamed_addr #1 {
  %3 = getelementptr inbounds nuw i8, ptr %0, i64 56
  %4 = load ptr, ptr %3, align 8, !tbaa !34
  %5 = getelementptr inbounds nuw i8, ptr %1, i64 12
  %6 = load i32, ptr %5, align 4, !tbaa !44
  %7 = zext i32 %6 to i64
  %8 = getelementptr inbounds nuw %struct.FxuListDouble, ptr %4, i64 %7
  %9 = load ptr, ptr %8, align 8, !tbaa !49
  %10 = icmp eq ptr %9, null
  br i1 %10, label %11, label %14

11:                                               ; preds = %2
  store ptr %1, ptr %8, align 8, !tbaa !49
  %12 = getelementptr inbounds nuw i8, ptr %8, i64 8
  store ptr %1, ptr %12, align 8, !tbaa !51
  %13 = getelementptr inbounds nuw i8, ptr %1, i64 48
  store ptr null, ptr %13, align 8, !tbaa !52
  br label %19

14:                                               ; preds = %2
  %15 = getelementptr inbounds nuw i8, ptr %1, i64 48
  store ptr null, ptr %15, align 8, !tbaa !52
  %16 = getelementptr inbounds nuw i8, ptr %8, i64 8
  %17 = load ptr, ptr %16, align 8, !tbaa !51
  %18 = getelementptr inbounds nuw i8, ptr %17, i64 48
  store ptr %1, ptr %18, align 8, !tbaa !52
  store ptr %1, ptr %16, align 8, !tbaa !51
  br label %19

19:                                               ; preds = %14, %11
  %.sink = phi ptr [ null, %11 ], [ %17, %14 ]
  %20 = getelementptr inbounds nuw i8, ptr %1, i64 40
  store ptr %.sink, ptr %20, align 8, !tbaa !53
  %21 = getelementptr inbounds nuw i8, ptr %8, i64 16
  %22 = load i32, ptr %21, align 8, !tbaa !54
  %23 = add nsw i32 %22, 1
  store i32 %23, ptr %21, align 8, !tbaa !54
  %24 = getelementptr inbounds nuw i8, ptr %0, i64 68
  %25 = load i32, ptr %24, align 4, !tbaa !55
  %26 = add nsw i32 %25, 1
  store i32 %26, ptr %24, align 4, !tbaa !55
  ret void
}